target datalayout = "e-m:e-p270:32:32-p271:32:32-p272:64:64-i64:64-i128:128-f80:128-n8:16:32:64-S128"
target triple = "x86_64-pc-linux-gnu"

; Function Attrs: nounwind uwtable
define internal i32 @prefix_suffix_match(ptr noundef %0, ptr noundef %1, i32 noundef %2) #0 {
  %4 = alloca i32, align 4
  %5 = alloca ptr, align 8
  %6 = alloca ptr, align 8
  %7 = alloca i32, align 4
  %8 = alloca i8, align 1
  %9 = alloca i32, align 4
  store ptr %0, ptr %5, align 8
  store ptr %1, ptr %6, align 8
  store i32 %2, ptr %7, align 4
  call void @llvm.lifetime.start.p0(i64 1, ptr %8) #11
  br label %10

10:                                               ; preds = %63, %3
  br label %11

11:                                               ; preds = %10
  %12 = load ptr, ptr %5, align 8
  %13 = getelementptr inbounds nuw i8, ptr %12, i32 1
  store ptr %13, ptr %5, align 8
  %14 = load i8, ptr %12, align 1
  store i8 %14, ptr %8, align 1
  %15 = sext i8 %14 to i32
  switch i32 %15, label %39 [
    i32 0, label %16
    i32 42, label %22
  ]

16:                                               ; preds = %11
  %17 = load ptr, ptr %6, align 8
  %18 = load i8, ptr %17, align 1
  %19 = sext i8 %18 to i32
  %20 = icmp eq i32 %19, 0
  %21 = zext i1 %20 to i32
  store i32 %21, ptr %4, align 4
  store i32 1, ptr %9, align 4
  br label %64

22:                                               ; preds = %11
  br label %23

23:                                               ; preds = %35, %22
  %24 = load ptr, ptr %6, align 8
  %25 = load i8, ptr %24, align 1
  %26 = sext i8 %25 to i32
  %27 = icmp ne i32 %26, 0
  br i1 %27, label %28, label %38

28:                                               ; preds = %23
  %29 = load ptr, ptr %5, align 8
  %30 = load ptr, ptr %6, align 8
  %31 = load i32, ptr %7, align 4
  %32 = call i32 @prefix_suffix_match(ptr noundef %29, ptr noundef %30, i32 noundef %31)
  %33 = icmp ne i32 %32, 0
  br i1 %33, label %34, label %35

34:                                               ; preds = %28
  store i32 1, ptr %4, align 4
  store i32 1, ptr %9, align 4
  br label %64

35:                                               ; preds = %28
  %36 = load ptr, ptr %6, align 8
  %37 = getelementptr inbounds nuw i8, ptr %36, i32 1
  store ptr %37, ptr %6, align 8
  br label %23, !llvm.loop !48

38:                                               ; preds = %23
  store i32 0, ptr %4, align 4
  store i32 1, ptr %9, align 4
  br label %64

39:                                               ; preds = %11
  %40 = load i8, ptr %8, align 1
  %41 = sext i8 %40 to i32
  %42 = load ptr, ptr %6, align 8
  %43 = load i8, ptr %42, align 1
  %44 = sext i8 %43 to i32
  %45 = icmp ne i32 %41, %44
  br i1 %45, label %46, label %60

46:                                               ; preds = %39
  %47 = load i32, ptr %7, align 4
  %48 = icmp ne i32 %47, 0
  br i1 %48, label %49, label %58

49:                                               ; preds = %46
  %50 = load i8, ptr %8, align 1
  %51 = call signext i8 @EVUTIL_TOLOWER_(i8 noundef signext %50)
  %52 = sext i8 %51 to i32
  %53 = load ptr, ptr %6, align 8
  %54 = load i8, ptr %53, align 1
  %55 = call signext i8 @EVUTIL_TOLOWER_(i8 noundef signext %54)
  %56 = sext i8 %55 to i32
  %57 = icmp ne i32 %52, %56
  br i1 %57, label %58, label %59

58:                                               ; preds = %49, %46
  store i32 0, ptr %4, align 4
  store i32 1, ptr %9, align 4
  br label %64

59:                                               ; preds = %49
  br label %60

60:                                               ; preds = %59, %39
  %61 = load ptr, ptr %6, align 8
  %62 = getelementptr inbounds nuw i8, ptr %61, i32 1
  store ptr %62, ptr %6, align 8
  br label %63

63:                                               ; preds = %60
  br label %10

64:                                               ; preds = %58, %38, %34, %16
  call void @llvm.lifetime.end.p0(i64 1, ptr %8) #11
  %65 = load i32, ptr %4, align 4
  ret i32 %65
}