; Function Attrs: nounwind uwtable
define internal fastcc range(i32 0, 2) i32 @prefix_suffix_match(ptr noundef readonly captures(none) %0, ptr noundef nonnull readonly captures(none) %1) unnamed_addr #0 {
  br label %3

3:                                                ; preds = %19, %2
  %.014 = phi ptr [ %1, %2 ], [ %20, %19 ]
  %.013 = phi ptr [ %0, %2 ], [ %4, %19 ]
  %4 = getelementptr inbounds nuw i8, ptr %.013, i64 1
  %5 = load i8, ptr %.013, align 1
  %6 = load i8, ptr %.014, align 1
  switch i8 %5, label %14 [
    i8 0, label %7
    i8 42, label %.preheader
  ]

.preheader:                                       ; preds = %3
  %.not23 = icmp eq i8 %6, 0
  br i1 %.not23, label %.loopexit, label %.lr.ph

7:                                                ; preds = %3
  %8 = icmp eq i8 %6, 0
  %9 = zext i1 %8 to i32
  br label %.loopexit

10:                                               ; preds = %.lr.ph
  %11 = getelementptr inbounds nuw i8, ptr %.124, i64 1
  %12 = load i8, ptr %11, align 1
  %.not = icmp eq i8 %12, 0
  br i1 %.not, label %.loopexit, label %.lr.ph, !llvm.loop !49

.lr.ph:                                           ; preds = %.preheader, %10
  %.124 = phi ptr [ %11, %10 ], [ %.014, %.preheader ]
  %13 = tail call fastcc i32 @prefix_suffix_match(ptr noundef nonnull %4, ptr noundef %.124)
  %.not15 = icmp eq i32 %13, 0
  br i1 %.not15, label %10, label %.loopexit

14:                                               ; preds = %3
  %.not16 = icmp eq i8 %5, %6
  br i1 %.not16, label %19, label %15

15:                                               ; preds = %14
  %16 = tail call signext i8 @EVUTIL_TOLOWER_(i8 noundef signext %5) #18
  %17 = load i8, ptr %.014, align 1
  %18 = tail call signext i8 @EVUTIL_TOLOWER_(i8 noundef signext %17) #18
  %.not17 = icmp eq i8 %16, %18
  br i1 %.not17, label %19, label %.loopexit

19:                                               ; preds = %15, %14
  %20 = getelementptr inbounds nuw i8, ptr %.014, i64 1
  br label %3

.loopexit:                                        ; preds = %15, %.lr.ph, %10, %.preheader, %7
  %.0 = phi i32 [ %9, %7 ], [ 0, %.preheader ], [ 1, %.lr.ph ], [ 0, %10 ], [ 0, %15 ]
  ret i32 %.0
}